; Function Attrs: nounwind uwtable
define noundef ptr @Gia_ManInsertOrder(ptr noundef %0, ptr noundef %1, ptr noundef %2) local_unnamed_addr #0 {
  %4 = getelementptr i8, ptr %0, i64 24
  %.val14 = load i32, ptr %4, align 8, !tbaa !41
  %5 = tail call noalias dereferenceable_or_null(16) ptr @malloc(i64 noundef 16) #31
  %6 = add i32 %.val14, -1
  %or.cond.i = icmp ult i32 %6, 15
  %spec.store.select.i = select i1 %or.cond.i, i32 16, i32 %.val14
  %7 = getelementptr inbounds nuw i8, ptr %5, i64 4
  store i32 0, ptr %7, align 4, !tbaa !28
  store i32 %spec.store.select.i, ptr %5, align 8, !tbaa !29
  %.not.i = icmp eq i32 %spec.store.select.i, 0
  br i1 %.not.i, label %Vec_IntAlloc.exit, label %8

8:                                                ; preds = %3
  %9 = sext i32 %spec.store.select.i to i64
  %10 = shl nsw i64 %9, 2
  %11 = tail call noalias ptr @malloc(i64 noundef %10) #31
  br label %Vec_IntAlloc.exit

Vec_IntAlloc.exit:                                ; preds = %3, %8
  %12 = phi ptr [ %11, %8 ], [ null, %3 ]
  %13 = getelementptr inbounds nuw i8, ptr %5, i64 8
  store ptr %12, ptr %13, align 8, !tbaa !30
  %14 = getelementptr inbounds nuw i8, ptr %0, i64 72
  %15 = load ptr, ptr %14, align 8, !tbaa !49
  %16 = getelementptr i8, ptr %15, i64 4
  %.val1317 = load i32, ptr %16, align 4, !tbaa !28
  %17 = icmp sgt i32 %.val1317, 0
  br i1 %17, label %.lr.ph, label %.critedge

.lr.ph:                                           ; preds = %Vec_IntAlloc.exit, %22
  %indvars.iv = phi i64 [ %indvars.iv.next, %22 ], [ 0, %Vec_IntAlloc.exit ]
  %18 = phi ptr [ %23, %22 ], [ %15, %Vec_IntAlloc.exit ]
  %19 = getelementptr i8, ptr %18, i64 8
  %.val16.val = load ptr, ptr %19, align 8, !tbaa !30
  %20 = getelementptr inbounds nuw i32, ptr %.val16.val, i64 %indvars.iv
  %21 = load i32, ptr %20, align 4, !tbaa !31
  %.not = icmp eq i32 %21, 0
  br i1 %.not, label %.critedge, label %22

22:                                               ; preds = %.lr.ph
  tail call void @Gia_ManInsertOrder_rec(ptr noundef nonnull %0, i32 noundef %21, ptr noundef %1, ptr noundef %2, ptr noundef nonnull %5)
  %indvars.iv.next = add nuw nsw i64 %indvars.iv, 1
  %23 = load ptr, ptr %14, align 8, !tbaa !49
  %24 = getelementptr i8, ptr %23, i64 4
  %.val13 = load i32, ptr %24, align 4, !tbaa !28
  %25 = sext i32 %.val13 to i64
  %26 = icmp slt i64 %indvars.iv.next, %25
  br i1 %26, label %.lr.ph, label %.critedge, !llvm.loop !125

.critedge:                                        ; preds = %.lr.ph, %22, %Vec_IntAlloc.exit
  ret ptr %5
}